ccopy_reg
_reconstructor
p0
(cnltk.classify.naivebayes
NaiveBayesClassifier
p1
c__builtin__
object
p2
Ntp3
Rp4
(dp5
S'_labels'
p6
(lp7
I00
aI01
asS'_feature_probdist'
p8
(dp9
(I01
Vall
p10
tp11
g0
(cnltk.probability
ELEProbDist
p12
g2
Ntp13
Rp14
(dp15
S'_gamma'
p16
F0.5
sS'_N'
p17
I2
sS'_freqdist'
p18
cnltk.probability
FreqDist
p19
((dp20
I00
I2
stp21
Rp22
sS'_bins'
p23
I2
sS'_divisor'
p24
F3.0
sbs(I01
Vsmall
p25
tp26
g0
(g12
g2
Ntp27
Rp28
(dp29
g16
F0.5
sg17
I2
sg18
g19
((dp30
I00
I1
sI01
I1
stp31
Rp32
sg23
I2
sg24
F3.0
sbs(I00
Vhappens
p33
tp34
g0
(g12
g2
Ntp35
Rp36
(dp37
g16
F0.5
sg17
I2
sg18
g19
((dp38
I00
I2
stp39
Rp40
sg23
I2
sg24
F3.0
sbs(I00
Vyou
p41
tp42
g0
(g12
g2
Ntp43
Rp44
(dp45
g16
F0.5
sg17
I2
sg18
g19
((dp46
I00
I1
sI01
I1
stp47
Rp48
sg23
I2
sg24
F3.0
sbs(I01
g41
tp49
g0
(g12
g2
Ntp50
Rp51
(dp52
g16
F0.5
sg17
I2
sg18
g19
((dp53
I00
I2
stp54
Rp55
sg23
I2
sg24
F3.0
sbs(I01
Vfuck
p56
tp57
g0
(g12
g2
Ntp58
Rp59
(dp60
g16
F0.5
sg17
I2
sg18
g19
((dp61
I00
I2
stp62
Rp63
sg23
I2
sg24
F3.0
sbs(I00
g25
tp64
g0
(g12
g2
Ntp65
Rp66
(dp67
g16
F0.5
sg17
I2
sg18
g19
((dp68
I00
I2
stp69
Rp70
sg23
I2
sg24
F3.0
sbs(I00
g56
tp71
g0
(g12
g2
Ntp72
Rp73
(dp74
g16
F0.5
sg17
I2
sg18
g19
((dp75
I00
I1
sI01
I1
stp76
Rp77
sg23
I2
sg24
F3.0
sbs(I01
Vpony
p78
tp79
g0
(g12
g2
Ntp80
Rp81
(dp82
g16
F0.5
sg17
I2
sg18
g19
((dp83
I00
I1
sI01
I1
stp84
Rp85
sg23
I2
sg24
F3.0
sbs(I00
g78
tp86
g0
(g12
g2
Ntp87
Rp88
(dp89
g16
F0.5
sg17
I2
sg18
g19
((dp90
I00
I2
stp91
Rp92
sg23
I2
sg24
F3.0
sbs(I00
Vshit
p93
tp94
g0
(g12
g2
Ntp95
Rp96
(dp97
g16
F0.5
sg17
I2
sg18
g19
((dp98
I00
I1
sI01
I1
stp99
Rp100
sg23
I2
sg24
F3.0
sbs(I01
g33
tp101
g0
(g12
g2
Ntp102
Rp103
(dp104
g16
F0.5
sg17
I2
sg18
g19
((dp105
I00
I1
sI01
I1
stp106
Rp107
sg23
I2
sg24
F3.0
sbs(I01
g93
tp108
g0
(g12
g2
Ntp109
Rp110
(dp111
g16
F0.5
sg17
I2
sg18
g19
((dp112
I00
I2
stp113
Rp114
sg23
I2
sg24
F3.0
sbs(I00
g10
tp115
g0
(g12
g2
Ntp116
Rp117
(dp118
g16
F0.5
sg17
I2
sg18
g19
((dp119
I00
I1
sI01
I1
stp120
Rp121
sg23
I2
sg24
F3.0
sbssS'_label_probdist'
p122
g0
(g12
g2
Ntp123
Rp124
(dp125
g16
F0.5
sg17
I4
sg18
g19
((dp126
I00
I2
sI01
I2
stp127
Rp128
sg23
I2
sg24
F5.0
sbsb.